target datalayout = "e-m:e-p270:32:32-p271:32:32-p272:64:64-i64:64-i128:128-f80:128-n8:16:32:64-S128"
target triple = "x86_64-pc-linux-gnu"

%struct.job_details_t = type { i32, ptr, i64, ptr, i32, ptr, i64, ptr, i16, i16, ptr, i16, i32, i32, i32, i16, ptr, i16, ptr, ptr, ptr, i16, ptr, ptr, ptr, ptr, i32, ptr, ptr, ptr, ptr, ptr, i32, i32, i32, ptr, ptr, i16, i32, i32, i32, i32, i32, i32, i16, i16, i32, i8, i8, i32, i32, i64, i64, i16, i32, ptr, ptr, i8, ptr, i32, ptr, i64, ptr, ptr, i16, i16, i16, i8, ptr, ptr, ptr, ptr, ptr, ptr, i64, i32, i32, i8, ptr, i16, ptr, ptr, i16 }

; Function Attrs: nounwind uwtable
define dso_local void @set_job_features_use(ptr noundef %0) #0 {
  %2 = alloca ptr, align 8
  store ptr %0, ptr %2, align 8
  %3 = load ptr, ptr %2, align 8
  %4 = icmp ne ptr %3, null
  br i1 %4, label %6, label %5

5:                                                ; preds = %1
  br label %33

6:                                                ; preds = %1
  %7 = load ptr, ptr %2, align 8
  %8 = getelementptr inbounds nuw %struct.job_details_t, ptr %7, i32 0, i32 56
  %9 = load ptr, ptr %8, align 8
  %10 = icmp ne ptr %9, null
  br i1 %10, label %11, label %22

11:                                               ; preds = %6
  %12 = load ptr, ptr %2, align 8
  %13 = getelementptr inbounds nuw %struct.job_details_t, ptr %12, i32 0, i32 56
  %14 = load ptr, ptr %13, align 8
  %15 = load ptr, ptr %2, align 8
  %16 = getelementptr inbounds nuw %struct.job_details_t, ptr %15, i32 0, i32 30
  store ptr %14, ptr %16, align 8
  %17 = load ptr, ptr %2, align 8
  %18 = getelementptr inbounds nuw %struct.job_details_t, ptr %17, i32 0, i32 55
  %19 = load ptr, ptr %18, align 8
  %20 = load ptr, ptr %2, align 8
  %21 = getelementptr inbounds nuw %struct.job_details_t, ptr %20, i32 0, i32 28
  store ptr %19, ptr %21, align 8
  br label %33

22:                                               ; preds = %6
  %23 = load ptr, ptr %2, align 8
  %24 = getelementptr inbounds nuw %struct.job_details_t, ptr %23, i32 0, i32 29
  %25 = load ptr, ptr %24, align 8
  %26 = load ptr, ptr %2, align 8
  %27 = getelementptr inbounds nuw %struct.job_details_t, ptr %26, i32 0, i32 30
  store ptr %25, ptr %27, align 8
  %28 = load ptr, ptr %2, align 8
  %29 = getelementptr inbounds nuw %struct.job_details_t, ptr %28, i32 0, i32 27
  %30 = load ptr, ptr %29, align 8
  %31 = load ptr, ptr %2, align 8
  %32 = getelementptr inbounds nuw %struct.job_details_t, ptr %31, i32 0, i32 28
  store ptr %30, ptr %32, align 8
  br label %33

33:                                               ; preds = %5, %22, %11
  ret void
}