; Function Attrs: mustprogress nofree norecurse nosync nounwind willreturn memory(argmem: readwrite) uwtable
define dso_local void @set_job_features_use(ptr noundef captures(address_is_null) %0) local_unnamed_addr #4 {
  %.not = icmp eq ptr %0, null
  br i1 %.not, label %12, label %2

2:                                                ; preds = %1
  %3 = getelementptr inbounds nuw i8, ptr %0, i64 344
  %4 = load ptr, ptr %3, align 8
  %.not11 = icmp eq ptr %4, null
  br i1 %.not11, label %5, label %.sink.split

5:                                                ; preds = %2
  %6 = getelementptr inbounds nuw i8, ptr %0, i64 208
  %7 = load ptr, ptr %6, align 8
  br label %.sink.split

.sink.split:                                      ; preds = %2, %5
  %.sink14 = phi ptr [ %7, %5 ], [ %4, %2 ]
  %.sink = phi i64 [ 192, %5 ], [ 336, %2 ]
  %8 = getelementptr inbounds nuw i8, ptr %0, i64 216
  store ptr %.sink14, ptr %8, align 8
  %9 = getelementptr inbounds nuw i8, ptr %0, i64 %.sink
  %10 = load ptr, ptr %9, align 8
  %11 = getelementptr inbounds nuw i8, ptr %0, i64 200
  store ptr %10, ptr %11, align 8
  br label %12

12:                                               ; preds = %.sink.split, %1
  ret void
}